target datalayout = "e-m:e-p270:32:32-p271:32:32-p272:64:64-i64:64-i128:128-f80:128-n8:16:32:64-S128"
target triple = "x86_64-pc-linux-gnu"

%"class.cv::Range" = type { i32, i32 }
%"class.cv::Mat" = type { i32, i32, i32, i32, ptr, ptr, ptr, ptr, ptr, ptr, %"struct.cv::MatSize", %"struct.cv::MatStep" }
%"struct.cv::MatSize" = type { ptr }
%"struct.cv::MatStep" = type { ptr, [2 x i64] }
%class.anon.0 = type { ptr, ptr, ptr, ptr, ptr, ptr }

; Function Attrs: inlinehint mustprogress nounwind uwtable
define linkonce_odr noundef float @_ZSt4sqrtf(float noundef %0) #9 comdat {
  %2 = alloca float, align 4
  store float %0, ptr %2, align 4, !tbaa !8
  %3 = load float, ptr %2, align 4, !tbaa !8
  %4 = call float @sqrtf(float noundef %3) #3, !tbaa !37
  ret float %4
}

; Function Attrs: inlinehint mustprogress nounwind uwtable
define linkonce_odr noundef nonnull align 4 dereferenceable(4) ptr @_ZSt3maxIfERKT_S2_S2_(ptr noundef nonnull align 4 dereferenceable(4) %0, ptr noundef nonnull align 4 dereferenceable(4) %1) #9 comdat {
  %3 = alloca ptr, align 8
  %4 = alloca ptr, align 8
  %5 = alloca ptr, align 8
  store ptr %0, ptr %4, align 8, !tbaa !16
  store ptr %1, ptr %5, align 8, !tbaa !16
  %6 = load ptr, ptr %4, align 8, !tbaa !16
  %7 = load float, ptr %6, align 4, !tbaa !8
  %8 = load ptr, ptr %5, align 8, !tbaa !16
  %9 = load float, ptr %8, align 4, !tbaa !8
  %10 = fcmp olt float %7, %9
  br i1 %10, label %11, label %13

11:                                               ; preds = %2
  %12 = load ptr, ptr %5, align 8, !tbaa !16
  store ptr %12, ptr %3, align 8
  br label %15

13:                                               ; preds = %2
  %14 = load ptr, ptr %4, align 8, !tbaa !16
  store ptr %14, ptr %3, align 8
  br label %15

15:                                               ; preds = %13, %11
  %16 = load ptr, ptr %3, align 8
  ret ptr %16
}

; Function Attrs: inlinehint mustprogress nounwind uwtable
define linkonce_odr hidden noundef ptr @_ZN2cv3Mat3ptrIfEEPT_i(ptr noundef nonnull align 8 dereferenceable(96) %0, i32 noundef %1) #9 comdat align 2 {
  %3 = alloca ptr, align 8
  %4 = alloca i32, align 4
  store ptr %0, ptr %3, align 8, !tbaa !3
  store i32 %1, ptr %4, align 4, !tbaa !37
  %5 = load ptr, ptr %3, align 8
  %6 = getelementptr inbounds nuw %"class.cv::Mat", ptr %5, i32 0, i32 4
  %7 = load ptr, ptr %6, align 8, !tbaa !99
  %8 = getelementptr inbounds nuw %"class.cv::Mat", ptr %5, i32 0, i32 11
  %9 = getelementptr inbounds nuw %"struct.cv::MatStep", ptr %8, i32 0, i32 0
  %10 = load ptr, ptr %9, align 8, !tbaa !100
  %11 = getelementptr inbounds i64, ptr %10, i64 0
  %12 = load i64, ptr %11, align 8, !tbaa !10
  %13 = load i32, ptr %4, align 4, !tbaa !37
  %14 = sext i32 %13 to i64
  %15 = mul i64 %12, %14
  %16 = getelementptr inbounds nuw i8, ptr %7, i64 %15
  ret ptr %16
}

; Function Attrs: inlinehint mustprogress nounwind uwtable
define linkonce_odr hidden noundef ptr @_ZNK2cv3Mat3ptrIKfEEPKT_i(ptr noundef nonnull align 8 dereferenceable(96) %0, i32 noundef %1) #9 comdat align 2 {
  %3 = alloca ptr, align 8
  %4 = alloca i32, align 4
  store ptr %0, ptr %3, align 8, !tbaa !3
  store i32 %1, ptr %4, align 4, !tbaa !37
  %5 = load ptr, ptr %3, align 8
  %6 = getelementptr inbounds nuw %"class.cv::Mat", ptr %5, i32 0, i32 4
  %7 = load ptr, ptr %6, align 8, !tbaa !99
  %8 = getelementptr inbounds nuw %"class.cv::Mat", ptr %5, i32 0, i32 11
  %9 = getelementptr inbounds nuw %"struct.cv::MatStep", ptr %8, i32 0, i32 0
  %10 = load ptr, ptr %9, align 8, !tbaa !100
  %11 = getelementptr inbounds i64, ptr %10, i64 0
  %12 = load i64, ptr %11, align 8, !tbaa !10
  %13 = load i32, ptr %4, align 4, !tbaa !37
  %14 = sext i32 %13 to i64
  %15 = mul i64 %12, %14
  %16 = getelementptr inbounds nuw i8, ptr %7, i64 %15
  ret ptr %16
}

; Function Attrs: inlinehint mustprogress nounwind uwtable
define internal void @"_ZZN2cv3dnn8fastNormERKNS_3MatES3_RS1_fmENK3$_0clERKNS_5RangeE"(ptr noundef nonnull align 8 dereferenceable(48) %0, ptr noundef nonnull align 4 dereferenceable(8) %1) #9 align 2 {
  %3 = alloca ptr, align 8
  %4 = alloca ptr, align 8
  %5 = alloca ptr, align 8
  %6 = alloca ptr, align 8
  %7 = alloca ptr, align 8
  %8 = alloca i32, align 4
  %9 = alloca i32, align 4
  %10 = alloca ptr, align 8
  %11 = alloca ptr, align 8
  %12 = alloca float, align 4
  %13 = alloca float, align 4
  %14 = alloca i32, align 4
  %15 = alloca float, align 4
  %16 = alloca float, align 4
  %17 = alloca float, align 4
  %18 = alloca float, align 4
  %19 = alloca i64, align 8
  store ptr %0, ptr %3, align 8, !tbaa !47
  store ptr %1, ptr %4, align 8, !tbaa !40
  %20 = load ptr, ptr %3, align 8
  call void @llvm.lifetime.start.p0(i64 8, ptr %5) #3
  %21 = getelementptr inbounds nuw %class.anon.0, ptr %20, i32 0, i32 0
  %22 = load ptr, ptr %21, align 8, !tbaa !102
  %23 = call noundef ptr @_ZNK2cv3Mat3ptrIKfEEPKT_i(ptr noundef nonnull align 8 dereferenceable(96) %22, i32 noundef 0)
  store ptr %23, ptr %5, align 8, !tbaa !16
  call void @llvm.lifetime.start.p0(i64 8, ptr %6) #3
  %24 = getelementptr inbounds nuw %class.anon.0, ptr %20, i32 0, i32 1
  %25 = load ptr, ptr %24, align 8, !tbaa !104
  %26 = call noundef ptr @_ZNK2cv3Mat3ptrIKfEEPKT_i(ptr noundef nonnull align 8 dereferenceable(96) %25, i32 noundef 0)
  store ptr %26, ptr %6, align 8, !tbaa !16
  call void @llvm.lifetime.start.p0(i64 8, ptr %7) #3
  %27 = getelementptr inbounds nuw %class.anon.0, ptr %20, i32 0, i32 2
  %28 = load ptr, ptr %27, align 8, !tbaa !105
  %29 = call noundef ptr @_ZN2cv3Mat3ptrIfEEPT_i(ptr noundef nonnull align 8 dereferenceable(96) %28, i32 noundef 0)
  store ptr %29, ptr %7, align 8, !tbaa !16
  call void @llvm.lifetime.start.p0(i64 4, ptr %8) #3
  %30 = load ptr, ptr %4, align 8, !tbaa !40
  %31 = getelementptr inbounds nuw %"class.cv::Range", ptr %30, i32 0, i32 0
  %32 = load i32, ptr %31, align 4, !tbaa !44
  store i32 %32, ptr %8, align 4, !tbaa !37
  br label %33

33:                                               ; preds = %133, %2
  %34 = load i32, ptr %8, align 4, !tbaa !37
  %35 = load ptr, ptr %4, align 8, !tbaa !40
  %36 = getelementptr inbounds nuw %"class.cv::Range", ptr %35, i32 0, i32 1
  %37 = load i32, ptr %36, align 4, !tbaa !46
  %38 = icmp slt i32 %34, %37
  br i1 %38, label %40, label %39

39:                                               ; preds = %33
  store i32 2, ptr %9, align 4
  call void @llvm.lifetime.end.p0(i64 4, ptr %8) #3
  br label %136

40:                                               ; preds = %33
  call void @llvm.lifetime.start.p0(i64 8, ptr %10) #3
  %41 = load ptr, ptr %5, align 8, !tbaa !16
  %42 = getelementptr inbounds nuw %class.anon.0, ptr %20, i32 0, i32 3
  %43 = load ptr, ptr %42, align 8, !tbaa !106
  %44 = load i64, ptr %43, align 8, !tbaa !10
  %45 = load i32, ptr %8, align 4, !tbaa !37
  %46 = sext i32 %45 to i64
  %47 = mul i64 %44, %46
  %48 = getelementptr inbounds nuw float, ptr %41, i64 %47
  store ptr %48, ptr %10, align 8, !tbaa !16
  call void @llvm.lifetime.start.p0(i64 8, ptr %11) #3
  %49 = load ptr, ptr %7, align 8, !tbaa !16
  %50 = getelementptr inbounds nuw %class.anon.0, ptr %20, i32 0, i32 3
  %51 = load ptr, ptr %50, align 8, !tbaa !106
  %52 = load i64, ptr %51, align 8, !tbaa !10
  %53 = load i32, ptr %8, align 4, !tbaa !37
  %54 = sext i32 %53 to i64
  %55 = mul i64 %52, %54
  %56 = getelementptr inbounds nuw float, ptr %49, i64 %55
  store ptr %56, ptr %11, align 8, !tbaa !16
  call void @llvm.lifetime.start.p0(i64 4, ptr %12) #3
  store float 0.000000e+00, ptr %12, align 4, !tbaa !8
  call void @llvm.lifetime.start.p0(i64 4, ptr %13) #3
  store float 0.000000e+00, ptr %13, align 4, !tbaa !8
  call void @llvm.lifetime.start.p0(i64 4, ptr %14) #3
  store i32 0, ptr %14, align 4, !tbaa !37
  br label %57

57:                                               ; preds = %78, %40
  %58 = load i32, ptr %14, align 4, !tbaa !37
  %59 = sext i32 %58 to i64
  %60 = getelementptr inbounds nuw %class.anon.0, ptr %20, i32 0, i32 3
  %61 = load ptr, ptr %60, align 8, !tbaa !106
  %62 = load i64, ptr %61, align 8, !tbaa !10
  %63 = icmp ult i64 %59, %62
  br i1 %63, label %65, label %64

64:                                               ; preds = %57
  store i32 5, ptr %9, align 4
  call void @llvm.lifetime.end.p0(i64 4, ptr %14) #3
  br label %81

65:                                               ; preds = %57
  call void @llvm.lifetime.start.p0(i64 4, ptr %15) #3
  %66 = load ptr, ptr %10, align 8, !tbaa !16
  %67 = load i32, ptr %14, align 4, !tbaa !37
  %68 = sext i32 %67 to i64
  %69 = getelementptr inbounds float, ptr %66, i64 %68
  %70 = load float, ptr %69, align 4, !tbaa !8
  store float %70, ptr %15, align 4, !tbaa !8
  %71 = load float, ptr %15, align 4, !tbaa !8
  %72 = load float, ptr %12, align 4, !tbaa !8
  %73 = fadd float %72, %71
  store float %73, ptr %12, align 4, !tbaa !8
  %74 = load float, ptr %15, align 4, !tbaa !8
  %75 = load float, ptr %15, align 4, !tbaa !8
  %76 = load float, ptr %13, align 4, !tbaa !8
  %77 = call float @llvm.fmuladd.f32(float %74, float %75, float %76)
  store float %77, ptr %13, align 4, !tbaa !8
  call void @llvm.lifetime.end.p0(i64 4, ptr %15) #3
  br label %78

78:                                               ; preds = %65
  %79 = load i32, ptr %14, align 4, !tbaa !37
  %80 = add nsw i32 %79, 1
  store i32 %80, ptr %14, align 4, !tbaa !37
  br label %57, !llvm.loop !107

81:                                               ; preds = %64
  %82 = getelementptr inbounds nuw %class.anon.0, ptr %20, i32 0, i32 4
  %83 = load ptr, ptr %82, align 8, !tbaa !108
  %84 = load float, ptr %83, align 4, !tbaa !8
  %85 = load float, ptr %12, align 4, !tbaa !8
  %86 = fmul float %85, %84
  store float %86, ptr %12, align 4, !tbaa !8
  call void @llvm.lifetime.start.p0(i64 4, ptr %16) #3
  store float 0.000000e+00, ptr %16, align 4, !tbaa !8
  call void @llvm.lifetime.start.p0(i64 4, ptr %17) #3
  %87 = load float, ptr %13, align 4, !tbaa !8
  %88 = getelementptr inbounds nuw %class.anon.0, ptr %20, i32 0, i32 4
  %89 = load ptr, ptr %88, align 8, !tbaa !108
  %90 = load float, ptr %89, align 4, !tbaa !8
  %91 = load float, ptr %12, align 4, !tbaa !8
  %92 = load float, ptr %12, align 4, !tbaa !8
  %93 = fmul float %91, %92
  %94 = fneg float %93
  %95 = call float @llvm.fmuladd.f32(float %87, float %90, float %94)
  store float %95, ptr %17, align 4, !tbaa !8
  %96 = call noundef nonnull align 4 dereferenceable(4) ptr @_ZSt3maxIfERKT_S2_S2_(ptr noundef nonnull align 4 dereferenceable(4) %16, ptr noundef nonnull align 4 dereferenceable(4) %17)
  %97 = load float, ptr %96, align 4, !tbaa !8
  %98 = getelementptr inbounds nuw %class.anon.0, ptr %20, i32 0, i32 5
  %99 = load ptr, ptr %98, align 8, !tbaa !109
  %100 = load float, ptr %99, align 4, !tbaa !8
  %101 = fadd float %97, %100
  %102 = call noundef float @_ZSt4sqrtf(float noundef %101)
  store float %102, ptr %13, align 4, !tbaa !8
  call void @llvm.lifetime.end.p0(i64 4, ptr %17) #3
  call void @llvm.lifetime.end.p0(i64 4, ptr %16) #3
  call void @llvm.lifetime.start.p0(i64 4, ptr %18) #3
  %103 = load float, ptr %13, align 4, !tbaa !8
  %104 = fdiv float 1.000000e+00, %103
  store float %104, ptr %18, align 4, !tbaa !8
  call void @llvm.lifetime.start.p0(i64 8, ptr %19) #3
  store i64 0, ptr %19, align 8, !tbaa !10
  br label %105

105:                                              ; preds = %129, %81
  %106 = load i64, ptr %19, align 8, !tbaa !10
  %107 = getelementptr inbounds nuw %class.anon.0, ptr %20, i32 0, i32 3
  %108 = load ptr, ptr %107, align 8, !tbaa !106
  %109 = load i64, ptr %108, align 8, !tbaa !10
  %110 = icmp ult i64 %106, %109
  br i1 %110, label %112, label %111

111:                                              ; preds = %105
  store i32 8, ptr %9, align 4
  call void @llvm.lifetime.end.p0(i64 8, ptr %19) #3
  br label %132

112:                                              ; preds = %105
  %113 = load ptr, ptr %6, align 8, !tbaa !16
  %114 = load i64, ptr %19, align 8, !tbaa !10
  %115 = getelementptr inbounds nuw float, ptr %113, i64 %114
  %116 = load float, ptr %115, align 4, !tbaa !8
  %117 = load ptr, ptr %10, align 8, !tbaa !16
  %118 = load i64, ptr %19, align 8, !tbaa !10
  %119 = getelementptr inbounds nuw float, ptr %117, i64 %118
  %120 = load float, ptr %119, align 4, !tbaa !8
  %121 = load float, ptr %12, align 4, !tbaa !8
  %122 = fsub float %120, %121
  %123 = fmul float %116, %122
  %124 = load float, ptr %18, align 4, !tbaa !8
  %125 = fmul float %123, %124
  %126 = load ptr, ptr %11, align 8, !tbaa !16
  %127 = load i64, ptr %19, align 8, !tbaa !10
  %128 = getelementptr inbounds nuw float, ptr %126, i64 %127
  store float %125, ptr %128, align 4, !tbaa !8
  br label %129

129:                                              ; preds = %112
  %130 = load i64, ptr %19, align 8, !tbaa !10
  %131 = add i64 %130, 1
  store i64 %131, ptr %19, align 8, !tbaa !10
  br label %105, !llvm.loop !110

132:                                              ; preds = %111
  call void @llvm.lifetime.end.p0(i64 4, ptr %18) #3
  call void @llvm.lifetime.end.p0(i64 4, ptr %13) #3
  call void @llvm.lifetime.end.p0(i64 4, ptr %12) #3
  call void @llvm.lifetime.end.p0(i64 8, ptr %11) #3
  call void @llvm.lifetime.end.p0(i64 8, ptr %10) #3
  br label %133

133:                                              ; preds = %132
  %134 = load i32, ptr %8, align 4, !tbaa !37
  %135 = add nsw i32 %134, 1
  store i32 %135, ptr %8, align 4, !tbaa !37
  br label %33, !llvm.loop !111

136:                                              ; preds = %39
  call void @llvm.lifetime.end.p0(i64 8, ptr %7) #3
  call void @llvm.lifetime.end.p0(i64 8, ptr %6) #3
  call void @llvm.lifetime.end.p0(i64 8, ptr %5) #3
  ret void
}

; Function Attrs: mustprogress nounwind uwtable
define linkonce_odr hidden noundef ptr @_ZNKSt9_Any_data9_M_accessEv(ptr noundef nonnull align 8 dereferenceable(16) %0) #7 comdat align 2 {
  %2 = alloca ptr, align 8
  store ptr %0, ptr %2, align 8, !tbaa !80
  %3 = load ptr, ptr %2, align 8
  %4 = getelementptr inbounds [16 x i8], ptr %3, i64 0, i64 0
  ret ptr %4
}

; Function Attrs: mustprogress uwtable
define internal void @"_ZSt13__invoke_implIvRZN2cv3dnn8fastNormERKNS0_3MatES4_RS2_fmE3$_0JRKNS0_5RangeEEET_St14__invoke_otherOT0_DpOT1_"(ptr noundef nonnull align 8 dereferenceable(48) %0, ptr noundef nonnull align 4 dereferenceable(8) %1) #4 {
  %3 = alloca ptr, align 8
  %4 = alloca ptr, align 8
  store ptr %0, ptr %3, align 8, !tbaa !47
  store ptr %1, ptr %4, align 8, !tbaa !40
  %5 = load ptr, ptr %3, align 8, !tbaa !47
  %6 = load ptr, ptr %4, align 8, !tbaa !40
  call void @"_ZZN2cv3dnn8fastNormERKNS_3MatES3_RS1_fmENK3$_0clERKNS_5RangeE"(ptr noundef nonnull align 8 dereferenceable(48) %5, ptr noundef nonnull align 4 dereferenceable(8) %6)
  ret void
}

; Function Attrs: mustprogress nounwind uwtable
define internal noundef nonnull align 8 dereferenceable(8) ptr @"_ZNKSt9_Any_data9_M_accessIPZN2cv3dnn8fastNormERKNS1_3MatES5_RS3_fmE3$_0EERKT_v"(ptr noundef nonnull align 8 dereferenceable(16) %0) #7 align 2 {
  %2 = alloca ptr, align 8
  store ptr %0, ptr %2, align 8, !tbaa !80
  %3 = load ptr, ptr %2, align 8
  %4 = call noundef ptr @_ZNKSt9_Any_data9_M_accessEv(ptr noundef nonnull align 8 dereferenceable(16) %3) #3
  ret ptr %4
}

; Function Attrs: mustprogress uwtable
define internal void @"_ZSt10__invoke_rIvRZN2cv3dnn8fastNormERKNS0_3MatES4_RS2_fmE3$_0JRKNS0_5RangeEEENSt9enable_ifIXsr6__and_ISt7is_voidIT_ESt14__is_invocableIT0_JDpT1_EEEE5valueESD_E4typeEOSG_DpOSH_"(ptr noundef nonnull align 8 dereferenceable(48) %0, ptr noundef nonnull align 4 dereferenceable(8) %1) #4 {
  %3 = alloca ptr, align 8
  %4 = alloca ptr, align 8
  store ptr %0, ptr %3, align 8, !tbaa !47
  store ptr %1, ptr %4, align 8, !tbaa !40
  %5 = load ptr, ptr %3, align 8, !tbaa !47
  %6 = load ptr, ptr %4, align 8, !tbaa !40
  call void @"_ZSt13__invoke_implIvRZN2cv3dnn8fastNormERKNS0_3MatES4_RS2_fmE3$_0JRKNS0_5RangeEEET_St14__invoke_otherOT0_DpOT1_"(ptr noundef nonnull align 8 dereferenceable(48) %5, ptr noundef nonnull align 4 dereferenceable(8) %6)
  ret void
}

; Function Attrs: mustprogress nounwind uwtable
define internal noundef ptr @"_ZNSt14_Function_base13_Base_managerIZN2cv3dnn8fastNormERKNS1_3MatES5_RS3_fmE3$_0E14_M_get_pointerERKSt9_Any_data"(ptr noundef nonnull align 8 dereferenceable(16) %0) #7 align 2 {
  %2 = alloca ptr, align 8
  store ptr %0, ptr %2, align 8, !tbaa !80
  %3 = load ptr, ptr %2, align 8, !tbaa !80
  %4 = call noundef nonnull align 8 dereferenceable(8) ptr @"_ZNKSt9_Any_data9_M_accessIPZN2cv3dnn8fastNormERKNS1_3MatES5_RS3_fmE3$_0EERKT_v"(ptr noundef nonnull align 8 dereferenceable(16) %3) #3
  %5 = load ptr, ptr %4, align 8, !tbaa !47
  ret ptr %5
}

; Function Attrs: mustprogress uwtable
define internal void @"_ZNSt17_Function_handlerIFvRKN2cv5RangeEEZNS0_3dnn8fastNormERKNS0_3MatES8_RS6_fmE3$_0E9_M_invokeERKSt9_Any_dataS3_"(ptr noundef nonnull align 8 dereferenceable(16) %0, ptr noundef nonnull align 4 dereferenceable(8) %1) #4 align 2 {
  %3 = alloca ptr, align 8
  %4 = alloca ptr, align 8
  store ptr %0, ptr %3, align 8, !tbaa !80
  store ptr %1, ptr %4, align 8, !tbaa !40
  %5 = load ptr, ptr %3, align 8, !tbaa !80
  %6 = call noundef ptr @"_ZNSt14_Function_base13_Base_managerIZN2cv3dnn8fastNormERKNS1_3MatES5_RS3_fmE3$_0E14_M_get_pointerERKSt9_Any_data"(ptr noundef nonnull align 8 dereferenceable(16) %5) #3
  %7 = load ptr, ptr %4, align 8, !tbaa !40
  call void @"_ZSt10__invoke_rIvRZN2cv3dnn8fastNormERKNS0_3MatES4_RS2_fmE3$_0JRKNS0_5RangeEEENSt9enable_ifIXsr6__and_ISt7is_voidIT_ESt14__is_invocableIT0_JDpT1_EEEE5valueESD_E4typeEOSG_DpOSH_"(ptr noundef nonnull align 8 dereferenceable(48) %6, ptr noundef nonnull align 4 dereferenceable(8) %7)
  ret void
}