; Function Attrs: mustprogress nofree nounwind memory(readwrite, inaccessiblemem: write) uwtable
define internal void @"_ZNSt17_Function_handlerIFvRKN2cv5RangeEEZNS0_3dnn8fastNormERKNS0_3MatES8_RS6_fmE3$_0E9_M_invokeERKSt9_Any_dataS3_"(ptr noundef nonnull readonly align 8 captures(none) dereferenceable(16) %0, ptr noundef nonnull readonly align 4 captures(none) dereferenceable(8) %1) #13 align 2 {
  %.val = load ptr, ptr %0, align 8, !tbaa !36
  %3 = load ptr, ptr %.val, align 8, !tbaa !60
  %4 = getelementptr inbounds nuw i8, ptr %3, i64 16
  %5 = load ptr, ptr %4, align 8, !tbaa !45
  %6 = getelementptr inbounds nuw i8, ptr %.val, i64 8
  %7 = load ptr, ptr %6, align 8, !tbaa !62
  %8 = getelementptr inbounds nuw i8, ptr %7, i64 16
  %9 = load ptr, ptr %8, align 8, !tbaa !45
  %10 = getelementptr inbounds nuw i8, ptr %.val, i64 16
  %11 = load ptr, ptr %10, align 8, !tbaa !63
  %12 = getelementptr inbounds nuw i8, ptr %11, i64 16
  %13 = load ptr, ptr %12, align 8, !tbaa !45
  %14 = load i32, ptr %1, align 4, !tbaa !26
  %15 = getelementptr inbounds nuw i8, ptr %1, i64 4
  %16 = load i32, ptr %15, align 4, !tbaa !28
  %17 = icmp slt i32 %14, %16
  br i1 %17, label %.lr.ph47.i.i.i, label %"_ZSt10__invoke_rIvRZN2cv3dnn8fastNormERKNS0_3MatES4_RS2_fmE3$_0JRKNS0_5RangeEEENSt9enable_ifIXsr6__and_ISt7is_voidIT_ESt14__is_invocableIT0_JDpT1_EEEE5valueESD_E4typeEOSG_DpOSH_.exit"

.lr.ph47.i.i.i:                                   ; preds = %2
  %18 = getelementptr inbounds nuw i8, ptr %.val, i64 24
  %19 = load ptr, ptr %18, align 8, !tbaa !64
  %20 = load i64, ptr %19, align 8, !tbaa !24
  %21 = getelementptr inbounds nuw i8, ptr %.val, i64 32
  %22 = load ptr, ptr %21, align 8, !tbaa !65
  %23 = getelementptr inbounds nuw i8, ptr %.val, i64 40
  %24 = load ptr, ptr %23, align 8, !tbaa !66
  %.not.i.i.i = icmp eq i64 %20, 0
  br i1 %.not.i.i.i, label %.lr.ph47.split.split.preheader.i.i.i, label %.lr.ph.us.us.preheader.i.i.i

.lr.ph.us.us.preheader.i.i.i:                     ; preds = %.lr.ph47.i.i.i
  %25 = sext i32 %14 to i64
  br label %.lr.ph.us.us.i.i.i

.lr.ph47.split.split.preheader.i.i.i:             ; preds = %.lr.ph47.i.i.i
  %.pre.i.i.i = load float, ptr %22, align 4, !tbaa !3
  %.pre67.i.i.i = load float, ptr %24, align 4, !tbaa !3
  %26 = fmul float %.pre.i.i.i, 0.000000e+00
  %27 = fneg float %26
  %28 = fmul float %26, %27
  %29 = tail call float @llvm.fmuladd.f32(float %.pre.i.i.i, float 0.000000e+00, float %28)
  %30 = fcmp ogt float %29, 0.000000e+00
  %.sroa.speculated.i.i.i = select i1 %30, float %29, float 0.000000e+00
  %31 = fadd float %.pre67.i.i.i, %.sroa.speculated.i.i.i
  %32 = fcmp olt float %31, 0.000000e+00
  br i1 %32, label %.lr.ph47.split.split.i.us.i.us.i.us, label %"_ZSt10__invoke_rIvRZN2cv3dnn8fastNormERKNS0_3MatES4_RS2_fmE3$_0JRKNS0_5RangeEEENSt9enable_ifIXsr6__and_ISt7is_voidIT_ESt14__is_invocableIT0_JDpT1_EEEE5valueESD_E4typeEOSG_DpOSH_.exit", !prof !56

.lr.ph47.split.split.i.us.i.us.i.us:              ; preds = %.lr.ph47.split.split.preheader.i.i.i, %.lr.ph47.split.split.i.us.i.us.i.us
  %.03245.i.us.i.us.i.us = phi i32 [ %34, %.lr.ph47.split.split.i.us.i.us.i.us ], [ %14, %.lr.ph47.split.split.preheader.i.i.i ]
  %33 = tail call noundef float @sqrtf(float noundef %31) #21, !tbaa !21
  %34 = add nsw i32 %.03245.i.us.i.us.i.us, 1
  %35 = load i32, ptr %15, align 4, !tbaa !28
  %36 = icmp slt i32 %34, %35
  br i1 %36, label %.lr.ph47.split.split.i.us.i.us.i.us, label %"_ZSt10__invoke_rIvRZN2cv3dnn8fastNormERKNS0_3MatES4_RS2_fmE3$_0JRKNS0_5RangeEEENSt9enable_ifIXsr6__and_ISt7is_voidIT_ESt14__is_invocableIT0_JDpT1_EEEE5valueESD_E4typeEOSG_DpOSH_.exit", !llvm.loop !67

.lr.ph.us.us.i.i.i:                               ; preds = %._crit_edge44.us.us.i.i.i, %.lr.ph.us.us.preheader.i.i.i
  %indvars.iv64.i.i.i = phi i64 [ %25, %.lr.ph.us.us.preheader.i.i.i ], [ %indvars.iv.next65.i.i.i, %._crit_edge44.us.us.i.i.i ]
  %37 = mul i64 %indvars.iv64.i.i.i, %20
  %38 = getelementptr inbounds nuw float, ptr %5, i64 %37
  br label %49

39:                                               ; preds = %._crit_edge.us.us.i.i.i, %39
  %.041.us.us.i.i.i = phi i64 [ 0, %._crit_edge.us.us.i.i.i ], [ %48, %39 ]
  %40 = getelementptr inbounds nuw float, ptr %9, i64 %.041.us.us.i.i.i
  %41 = load float, ptr %40, align 4, !tbaa !3
  %42 = getelementptr inbounds nuw float, ptr %38, i64 %.041.us.us.i.i.i
  %43 = load float, ptr %42, align 4, !tbaa !3
  %44 = fsub float %43, %56
  %45 = fmul float %41, %44
  %46 = fmul float %64, %45
  %47 = getelementptr inbounds nuw float, ptr %54, i64 %.041.us.us.i.i.i
  store float %46, ptr %47, align 4, !tbaa !3
  %48 = add nuw i64 %.041.us.us.i.i.i, 1
  %exitcond63.not.i.i.i = icmp eq i64 %48, %20
  br i1 %exitcond63.not.i.i.i, label %._crit_edge44.us.us.i.i.i, label %39, !llvm.loop !68

49:                                               ; preds = %49, %.lr.ph.us.us.i.i.i
  %indvars.iv.i.i.i = phi i64 [ 0, %.lr.ph.us.us.i.i.i ], [ %indvars.iv.next.i.i.i, %49 ]
  %.03438.us.us.i.i.i = phi float [ 0.000000e+00, %.lr.ph.us.us.i.i.i ], [ %53, %49 ]
  %.03537.us.us.i.i.i = phi float [ 0.000000e+00, %.lr.ph.us.us.i.i.i ], [ %52, %49 ]
  %50 = getelementptr inbounds nuw float, ptr %38, i64 %indvars.iv.i.i.i
  %51 = load float, ptr %50, align 4, !tbaa !3
  %52 = fadd float %.03537.us.us.i.i.i, %51
  %53 = tail call float @llvm.fmuladd.f32(float %51, float %51, float %.03438.us.us.i.i.i)
  %indvars.iv.next.i.i.i = add nuw nsw i64 %indvars.iv.i.i.i, 1
  %exitcond.not.i.i.i = icmp eq i64 %indvars.iv.next.i.i.i, %20
  br i1 %exitcond.not.i.i.i, label %._crit_edge.us.us.i.i.i, label %49, !llvm.loop !69

._crit_edge.us.us.i.i.i:                          ; preds = %49
  %54 = getelementptr inbounds nuw float, ptr %13, i64 %37
  %55 = load float, ptr %22, align 4, !tbaa !3
  %56 = fmul float %52, %55
  %57 = fneg float %56
  %58 = fmul float %56, %57
  %59 = tail call float @llvm.fmuladd.f32(float %53, float %55, float %58)
  %60 = fcmp ogt float %59, 0.000000e+00
  %.sroa.speculated.us.us.i.i.i = select i1 %60, float %59, float 0.000000e+00
  %61 = load float, ptr %24, align 4, !tbaa !3
  %62 = fadd float %61, %.sroa.speculated.us.us.i.i.i
  %63 = tail call noundef float @sqrtf(float noundef %62) #21, !tbaa !21
  %64 = fdiv float 1.000000e+00, %63
  br label %39

._crit_edge44.us.us.i.i.i:                        ; preds = %39
  %indvars.iv.next65.i.i.i = add nsw i64 %indvars.iv64.i.i.i, 1
  %65 = load i32, ptr %15, align 4, !tbaa !28
  %66 = sext i32 %65 to i64
  %67 = icmp slt i64 %indvars.iv.next65.i.i.i, %66
  br i1 %67, label %.lr.ph.us.us.i.i.i, label %"_ZSt10__invoke_rIvRZN2cv3dnn8fastNormERKNS0_3MatES4_RS2_fmE3$_0JRKNS0_5RangeEEENSt9enable_ifIXsr6__and_ISt7is_voidIT_ESt14__is_invocableIT0_JDpT1_EEEE5valueESD_E4typeEOSG_DpOSH_.exit", !llvm.loop !67

"_ZSt10__invoke_rIvRZN2cv3dnn8fastNormERKNS0_3MatES4_RS2_fmE3$_0JRKNS0_5RangeEEENSt9enable_ifIXsr6__and_ISt7is_voidIT_ESt14__is_invocableIT0_JDpT1_EEEE5valueESD_E4typeEOSG_DpOSH_.exit": ; preds = %._crit_edge44.us.us.i.i.i, %.lr.ph47.split.split.i.us.i.us.i.us, %2, %.lr.ph47.split.split.preheader.i.i.i
  ret void
}